target datalayout = "e-m:e-p270:32:32-p271:32:32-p272:64:64-i64:64-i128:128-f80:128-n8:16:32:64-S128"
target triple = "x86_64-unknown-linux-gnu"

%struct.QuorumAIOCB = type { ptr, ptr, i64, i64, i32, ptr, ptr, i32, i32, i32, %struct.QuorumVotes, i8, i32, i32 }
%struct.QuorumVotes = type { %struct.anon.15, ptr }
%struct.anon.15 = type { ptr }
%struct.QuorumCo = type { ptr, i32 }
%union.QuorumVoteValue = type { i64, [24 x i8] }
%struct.QuorumVoteVersion = type { %union.QuorumVoteValue, i32, i32, %struct.anon.19, %struct.anon.20 }
%struct.anon.19 = type { ptr }
%struct.anon.20 = type { ptr, ptr }
%struct.QuorumVoteItem = type { i32, %struct.anon.21 }
%struct.anon.21 = type { ptr, ptr }

; Function Attrs: nounwind sspstrong uwtable
define internal zeroext i1 @quorum_rewrite_bad_versions(ptr noundef %acb, ptr noundef %value) #0 {
entry:
  %acb.addr = alloca ptr, align 8
  %value.addr = alloca ptr, align 8
  %version = alloca ptr, align 8
  %item = alloca ptr, align 8
  %count = alloca i32, align 4
  %co = alloca ptr, align 8
  %data = alloca %struct.QuorumCo, align 8
  store ptr %acb, ptr %acb.addr, align 8
  store ptr %value, ptr %value.addr, align 8
  store i32 0, ptr %count, align 4
  %0 = load ptr, ptr %acb.addr, align 8
  %votes = getelementptr inbounds %struct.QuorumAIOCB, ptr %0, i32 0, i32 10
  %vote_list = getelementptr inbounds %struct.QuorumVotes, ptr %votes, i32 0, i32 0
  %lh_first = getelementptr inbounds %struct.anon.15, ptr %vote_list, i32 0, i32 0
  %1 = load ptr, ptr %lh_first, align 8
  store ptr %1, ptr %version, align 8
  br label %for.cond

for.cond:                                         ; preds = %for.inc7, %entry
  %2 = load ptr, ptr %version, align 8
  %tobool = icmp ne ptr %2, null
  br i1 %tobool, label %for.body, label %for.end10

for.body:                                         ; preds = %for.cond
  %3 = load ptr, ptr %acb.addr, align 8
  %votes1 = getelementptr inbounds %struct.QuorumAIOCB, ptr %3, i32 0, i32 10
  %compare = getelementptr inbounds %struct.QuorumVotes, ptr %votes1, i32 0, i32 1
  %4 = load ptr, ptr %compare, align 8
  %5 = load ptr, ptr %version, align 8
  %value2 = getelementptr inbounds %struct.QuorumVoteVersion, ptr %5, i32 0, i32 0
  %6 = load ptr, ptr %value.addr, align 8
  %call = call zeroext i1 %4(ptr noundef %value2, ptr noundef %6)
  br i1 %call, label %if.then, label %if.end

if.then:                                          ; preds = %for.body
  br label %for.inc7

if.end:                                           ; preds = %for.body
  %7 = load ptr, ptr %version, align 8
  %items = getelementptr inbounds %struct.QuorumVoteVersion, ptr %7, i32 0, i32 3
  %lh_first3 = getelementptr inbounds %struct.anon.19, ptr %items, i32 0, i32 0
  %8 = load ptr, ptr %lh_first3, align 8
  store ptr %8, ptr %item, align 8
  br label %for.cond4

for.cond4:                                        ; preds = %for.inc, %if.end
  %9 = load ptr, ptr %item, align 8
  %tobool5 = icmp ne ptr %9, null
  br i1 %tobool5, label %for.body6, label %for.end

for.body6:                                        ; preds = %for.cond4
  %10 = load i32, ptr %count, align 4
  %inc = add i32 %10, 1
  store i32 %inc, ptr %count, align 4
  br label %for.inc

for.inc:                                          ; preds = %for.body6
  %11 = load ptr, ptr %item, align 8
  %next = getelementptr inbounds %struct.QuorumVoteItem, ptr %11, i32 0, i32 1
  %le_next = getelementptr inbounds %struct.anon.21, ptr %next, i32 0, i32 0
  %12 = load ptr, ptr %le_next, align 8
  store ptr %12, ptr %item, align 8
  br label %for.cond4, !llvm.loop !33

for.end:                                          ; preds = %for.cond4
  br label %for.inc7

for.inc7:                                         ; preds = %for.end, %if.then
  %13 = load ptr, ptr %version, align 8
  %next8 = getelementptr inbounds %struct.QuorumVoteVersion, ptr %13, i32 0, i32 4
  %le_next9 = getelementptr inbounds %struct.anon.20, ptr %next8, i32 0, i32 0
  %14 = load ptr, ptr %le_next9, align 8
  store ptr %14, ptr %version, align 8
  br label %for.cond, !llvm.loop !34

for.end10:                                        ; preds = %for.cond
  %15 = load i32, ptr %count, align 4
  %16 = load ptr, ptr %acb.addr, align 8
  %rewrite_count = getelementptr inbounds %struct.QuorumAIOCB, ptr %16, i32 0, i32 9
  store i32 %15, ptr %rewrite_count, align 8
  %17 = load ptr, ptr %acb.addr, align 8
  %votes11 = getelementptr inbounds %struct.QuorumAIOCB, ptr %17, i32 0, i32 10
  %vote_list12 = getelementptr inbounds %struct.QuorumVotes, ptr %votes11, i32 0, i32 0
  %lh_first13 = getelementptr inbounds %struct.anon.15, ptr %vote_list12, i32 0, i32 0
  %18 = load ptr, ptr %lh_first13, align 8
  store ptr %18, ptr %version, align 8
  br label %for.cond14

for.cond14:                                       ; preds = %for.inc34, %for.end10
  %19 = load ptr, ptr %version, align 8
  %tobool15 = icmp ne ptr %19, null
  br i1 %tobool15, label %for.body16, label %for.end37

for.body16:                                       ; preds = %for.cond14
  %20 = load ptr, ptr %acb.addr, align 8
  %votes17 = getelementptr inbounds %struct.QuorumAIOCB, ptr %20, i32 0, i32 10
  %compare18 = getelementptr inbounds %struct.QuorumVotes, ptr %votes17, i32 0, i32 1
  %21 = load ptr, ptr %compare18, align 8
  %22 = load ptr, ptr %version, align 8
  %value19 = getelementptr inbounds %struct.QuorumVoteVersion, ptr %22, i32 0, i32 0
  %23 = load ptr, ptr %value.addr, align 8
  %call20 = call zeroext i1 %21(ptr noundef %value19, ptr noundef %23)
  br i1 %call20, label %if.then21, label %if.end22

if.then21:                                        ; preds = %for.body16
  br label %for.inc34

if.end22:                                         ; preds = %for.body16
  %24 = load ptr, ptr %version, align 8
  %items23 = getelementptr inbounds %struct.QuorumVoteVersion, ptr %24, i32 0, i32 3
  %lh_first24 = getelementptr inbounds %struct.anon.19, ptr %items23, i32 0, i32 0
  %25 = load ptr, ptr %lh_first24, align 8
  store ptr %25, ptr %item, align 8
  br label %for.cond25

for.cond25:                                       ; preds = %for.inc30, %if.end22
  %26 = load ptr, ptr %item, align 8
  %tobool26 = icmp ne ptr %26, null
  br i1 %tobool26, label %for.body27, label %for.end33

for.body27:                                       ; preds = %for.cond25
  %acb28 = getelementptr inbounds %struct.QuorumCo, ptr %data, i32 0, i32 0
  %27 = load ptr, ptr %acb.addr, align 8
  store ptr %27, ptr %acb28, align 8
  %idx = getelementptr inbounds %struct.QuorumCo, ptr %data, i32 0, i32 1
  %28 = load ptr, ptr %item, align 8
  %index = getelementptr inbounds %struct.QuorumVoteItem, ptr %28, i32 0, i32 0
  %29 = load i32, ptr %index, align 8
  store i32 %29, ptr %idx, align 8
  %call29 = call ptr @qemu_coroutine_create(ptr noundef @quorum_rewrite_entry, ptr noundef %data)
  store ptr %call29, ptr %co, align 8
  %30 = load ptr, ptr %co, align 8
  call void @qemu_coroutine_enter(ptr noundef %30)
  br label %for.inc30

for.inc30:                                        ; preds = %for.body27
  %31 = load ptr, ptr %item, align 8
  %next31 = getelementptr inbounds %struct.QuorumVoteItem, ptr %31, i32 0, i32 1
  %le_next32 = getelementptr inbounds %struct.anon.21, ptr %next31, i32 0, i32 0
  %32 = load ptr, ptr %le_next32, align 8
  store ptr %32, ptr %item, align 8
  br label %for.cond25, !llvm.loop !35

for.end33:                                        ; preds = %for.cond25
  br label %for.inc34

for.inc34:                                        ; preds = %for.end33, %if.then21
  %33 = load ptr, ptr %version, align 8
  %next35 = getelementptr inbounds %struct.QuorumVoteVersion, ptr %33, i32 0, i32 4
  %le_next36 = getelementptr inbounds %struct.anon.20, ptr %next35, i32 0, i32 0
  %34 = load ptr, ptr %le_next36, align 8
  store ptr %34, ptr %version, align 8
  br label %for.cond14, !llvm.loop !36

for.end37:                                        ; preds = %for.cond14
  %35 = load i32, ptr %count, align 4
  %tobool38 = icmp ne i32 %35, 0
  ret i1 %tobool38
}