; Function Attrs: nounwind sspstrong uwtable
define internal zeroext i1 @quorum_rewrite_bad_versions(ptr noundef %acb, ptr noundef %value) #0 {
entry:
  %data = alloca %struct.QuorumCo, align 8
  %votes = getelementptr inbounds nuw i8, ptr %acb, i64 72
  %version.024 = load ptr, ptr %votes, align 8
  %tobool.not25 = icmp eq ptr %version.024, null
  br i1 %tobool.not25, label %for.end10.thread, label %for.body.lr.ph

for.end10.thread:                                 ; preds = %entry
  %rewrite_count38 = getelementptr inbounds nuw i8, ptr %acb, i64 64
  store i32 0, ptr %rewrite_count38, align 8
  br label %for.end37

for.body.lr.ph:                                   ; preds = %entry
  %compare = getelementptr inbounds nuw i8, ptr %acb, i64 80
  br label %for.body

for.body:                                         ; preds = %for.body.lr.ph, %for.inc7
  %version.027 = phi ptr [ %version.024, %for.body.lr.ph ], [ %version.0, %for.inc7 ]
  %count.026 = phi i32 [ 0, %for.body.lr.ph ], [ %count.1, %for.inc7 ]
  %0 = load ptr, ptr %compare, align 8
  %call = tail call zeroext i1 %0(ptr noundef nonnull %version.027, ptr noundef %value) #17
  br i1 %call, label %for.inc7, label %if.end

if.end:                                           ; preds = %for.body
  %items = getelementptr inbounds nuw i8, ptr %version.027, i64 40
  %item.020 = load ptr, ptr %items, align 8
  %tobool5.not21 = icmp eq ptr %item.020, null
  br i1 %tobool5.not21, label %for.inc7, label %for.body6

for.body6:                                        ; preds = %if.end, %for.body6
  %item.023 = phi ptr [ %item.0, %for.body6 ], [ %item.020, %if.end ]
  %count.222 = phi i32 [ %inc, %for.body6 ], [ %count.026, %if.end ]
  %inc = add i32 %count.222, 1
  %next = getelementptr inbounds nuw i8, ptr %item.023, i64 8
  %item.0 = load ptr, ptr %next, align 8
  %tobool5.not = icmp eq ptr %item.0, null
  br i1 %tobool5.not, label %for.inc7, label %for.body6, !llvm.loop !36

for.inc7:                                         ; preds = %for.body6, %if.end, %for.body
  %count.1 = phi i32 [ %count.026, %for.body ], [ %count.026, %if.end ], [ %inc, %for.body6 ]
  %next8 = getelementptr inbounds nuw i8, ptr %version.027, i64 48
  %version.0 = load ptr, ptr %next8, align 8
  %tobool.not = icmp eq ptr %version.0, null
  br i1 %tobool.not, label %for.end10, label %for.body, !llvm.loop !37

for.end10:                                        ; preds = %for.inc7
  %version.132.pre = load ptr, ptr %votes, align 8
  %rewrite_count = getelementptr inbounds nuw i8, ptr %acb, i64 64
  store i32 %count.1, ptr %rewrite_count, align 8
  %tobool15.not33 = icmp eq ptr %version.132.pre, null
  br i1 %tobool15.not33, label %for.end37, label %for.body16.lr.ph

for.body16.lr.ph:                                 ; preds = %for.end10
  %compare18 = getelementptr inbounds nuw i8, ptr %acb, i64 80
  %idx = getelementptr inbounds nuw i8, ptr %data, i64 8
  br label %for.body16

for.body16:                                       ; preds = %for.body16.lr.ph, %for.inc34
  %version.134 = phi ptr [ %version.132.pre, %for.body16.lr.ph ], [ %version.1, %for.inc34 ]
  %1 = load ptr, ptr %compare18, align 8
  %call20 = call zeroext i1 %1(ptr noundef nonnull %version.134, ptr noundef %value) #17
  br i1 %call20, label %for.inc34, label %if.end22

if.end22:                                         ; preds = %for.body16
  %items23 = getelementptr inbounds nuw i8, ptr %version.134, i64 40
  %item.129 = load ptr, ptr %items23, align 8
  %tobool26.not30 = icmp eq ptr %item.129, null
  br i1 %tobool26.not30, label %for.inc34, label %for.body27

for.body27:                                       ; preds = %if.end22, %for.body27
  %item.131 = phi ptr [ %item.1, %for.body27 ], [ %item.129, %if.end22 ]
  store ptr %acb, ptr %data, align 8
  %2 = load i32, ptr %item.131, align 8
  store i32 %2, ptr %idx, align 8
  %call29 = call ptr @qemu_coroutine_create(ptr noundef nonnull @quorum_rewrite_entry, ptr noundef nonnull %data) #17
  call void @qemu_coroutine_enter(ptr noundef %call29) #17
  %next31 = getelementptr inbounds nuw i8, ptr %item.131, i64 8
  %item.1 = load ptr, ptr %next31, align 8
  %tobool26.not = icmp eq ptr %item.1, null
  br i1 %tobool26.not, label %for.inc34, label %for.body27, !llvm.loop !38

for.inc34:                                        ; preds = %for.body27, %if.end22, %for.body16
  %next35 = getelementptr inbounds nuw i8, ptr %version.134, i64 48
  %version.1 = load ptr, ptr %next35, align 8
  %tobool15.not = icmp eq ptr %version.1, null
  br i1 %tobool15.not, label %for.end37, label %for.body16, !llvm.loop !39

for.end37:                                        ; preds = %for.inc34, %for.end10.thread, %for.end10
  %count.0.lcssa40 = phi i32 [ 0, %for.end10.thread ], [ %count.1, %for.end10 ], [ %count.1, %for.inc34 ]
  %tobool38 = icmp ne i32 %count.0.lcssa40, 0
  ret i1 %tobool38
}